; Function Attrs: mustprogress uwtable
define void @_ZNK5Ipopt12ScaledMatrix13AddMSinvZImplEdRKNS_6VectorES3_RS1_(ptr noundef nonnull align 8 dereferenceable(96) %0, double noundef %1, ptr noundef nonnull align 8 dereferenceable(205) %2, ptr noundef nonnull align 8 dereferenceable(205) %3, ptr noundef nonnull align 8 dereferenceable(205) %4) unnamed_addr #0 align 2 personality ptr @__gxx_personality_v0 {
  %6 = getelementptr inbounds i8, ptr %2, i64 56
  %7 = load ptr, ptr %6, align 8
  %8 = load ptr, ptr %7, align 8
  %9 = getelementptr inbounds i8, ptr %8, i64 16
  %10 = load ptr, ptr %9, align 8
  %11 = tail call noundef ptr %10(ptr noundef nonnull align 8 dereferenceable(16) %7)
  %.not.i.i = icmp eq ptr %11, null
  br i1 %.not.i.i, label %_ZN5Ipopt8SmartPtrINS_6VectorEEC2EPS1_.exit, label %12

12:                                               ; preds = %5
  %13 = getelementptr inbounds i8, ptr %11, i64 8
  %14 = load i32, ptr %13, align 8
  %15 = add nsw i32 %14, 1
  store i32 %15, ptr %13, align 8
  br label %_ZN5Ipopt8SmartPtrINS_6VectorEEC2EPS1_.exit

_ZN5Ipopt8SmartPtrINS_6VectorEEC2EPS1_.exit:      ; preds = %12, %5
  %16 = load ptr, ptr %11, align 8
  %17 = getelementptr inbounds i8, ptr %16, i64 208
  %18 = load ptr, ptr %17, align 8
  invoke void %18(ptr noundef nonnull align 8 dereferenceable(205) %11, double noundef 1.000000e+00, ptr noundef nonnull align 8 dereferenceable(205) %3, ptr noundef nonnull align 8 dereferenceable(205) %2, double noundef 0.000000e+00)
          to label %.noexc unwind label %30

.noexc:                                           ; preds = %_ZN5Ipopt8SmartPtrINS_6VectorEEC2EPS1_.exit
  invoke void @_ZN5Ipopt12TaggedObject13ObjectChangedEv(ptr noundef nonnull align 8 dereferenceable(56) %11)
          to label %_ZN5Ipopt6Vector17AddVectorQuotientEdRKS0_S2_d.exit unwind label %30

_ZN5Ipopt6Vector17AddVectorQuotientEdRKS0_S2_d.exit: ; preds = %.noexc
  %19 = load ptr, ptr %0, align 8
  %20 = getelementptr inbounds i8, ptr %19, i64 32
  %21 = load ptr, ptr %20, align 8
  invoke void %21(ptr noundef nonnull align 8 dereferenceable(69) %0, double noundef %1, ptr noundef nonnull align 8 dereferenceable(205) %11, double noundef 1.000000e+00, ptr noundef nonnull align 8 dereferenceable(205) %4)
          to label %_ZNK5Ipopt6Matrix10MultVectorEdRKNS_6VectorEdRS1_.exit unwind label %30

_ZNK5Ipopt6Matrix10MultVectorEdRKNS_6VectorEdRS1_.exit: ; preds = %_ZN5Ipopt6Vector17AddVectorQuotientEdRKS0_S2_d.exit
  %22 = getelementptr inbounds i8, ptr %11, i64 8
  %23 = load i32, ptr %22, align 8
  %24 = add nsw i32 %23, -1
  store i32 %24, ptr %22, align 8
  %25 = icmp eq i32 %24, 0
  br i1 %25, label %26, label %_ZN5Ipopt8SmartPtrINS_6VectorEED2Ev.exit

26:                                               ; preds = %_ZNK5Ipopt6Matrix10MultVectorEdRKNS_6VectorEdRS1_.exit
  %27 = load ptr, ptr %11, align 8
  %28 = getelementptr inbounds i8, ptr %27, i64 8
  %29 = load ptr, ptr %28, align 8
  tail call void %29(ptr noundef nonnull align 8 dereferenceable(205) %11) #11
  br label %_ZN5Ipopt8SmartPtrINS_6VectorEED2Ev.exit

_ZN5Ipopt8SmartPtrINS_6VectorEED2Ev.exit:         ; preds = %_ZNK5Ipopt6Matrix10MultVectorEdRKNS_6VectorEdRS1_.exit, %26
  ret void

30:                                               ; preds = %_ZN5Ipopt8SmartPtrINS_6VectorEEC2EPS1_.exit, %.noexc, %_ZN5Ipopt6Vector17AddVectorQuotientEdRKS0_S2_d.exit
  %31 = landingpad { ptr, i32 }
          cleanup
  %32 = getelementptr inbounds i8, ptr %11, i64 8
  %33 = load i32, ptr %32, align 8
  %34 = add nsw i32 %33, -1
  store i32 %34, ptr %32, align 8
  %35 = icmp eq i32 %34, 0
  br i1 %35, label %36, label %_ZN5Ipopt8SmartPtrINS_6VectorEED2Ev.exit11

36:                                               ; preds = %30
  %37 = load ptr, ptr %11, align 8
  %38 = getelementptr inbounds i8, ptr %37, i64 8
  %39 = load ptr, ptr %38, align 8
  tail call void %39(ptr noundef nonnull align 8 dereferenceable(205) %11) #11
  br label %_ZN5Ipopt8SmartPtrINS_6VectorEED2Ev.exit11

_ZN5Ipopt8SmartPtrINS_6VectorEED2Ev.exit11:       ; preds = %30, %36
  resume { ptr, i32 } %31
}